; Function Attrs: mustprogress nounwind uwtable
define internal fastcc void @_ZN12_GLOBAL__N_117OMPClauseProfiler22VisitOMPAllocateClauseEPKN5clang17OMPAllocateClauseE(ptr noundef nonnull readonly align 8 captures(none) dereferenceable(8) %0, ptr noundef nonnull readonly %1) unnamed_addr #0 align 2 {
  %3 = getelementptr inbounds nuw i8, ptr %1, i64 24
  %4 = load ptr, ptr %3, align 8
  %.not = icmp eq ptr %4, null
  br i1 %.not, label %7, label %5

5:                                                ; preds = %2
  %6 = load ptr, ptr %0, align 8
  tail call fastcc void @_ZN12_GLOBAL__N_112StmtProfiler9VisitStmtEPKN5clang4StmtE(ptr noundef nonnull align 8 dereferenceable(18) %6, ptr noundef nonnull %4)
  br label %7

7:                                                ; preds = %5, %2
  %8 = getelementptr inbounds nuw i8, ptr %1, i64 16
  %9 = load i32, ptr %8, align 4
  %10 = zext i32 %9 to i64
  %.idx = shl nuw nsw i64 %10, 3
  %11 = getelementptr inbounds nuw i8, ptr %1, i64 %.idx
  %.ptr7 = getelementptr inbounds nuw i8, ptr %11, i64 40
  %.not.i5 = icmp eq i32 %9, 0
  br i1 %.not.i5, label %_ZN12_GLOBAL__N_117OMPClauseProfiler18VisitOMPClauseListIKN5clang17OMPAllocateClauseEEEvPT_.exit, label %.lr.ph.preheader

.lr.ph.preheader:                                 ; preds = %7
  %.ptr = getelementptr inbounds nuw i8, ptr %1, i64 40
  br label %.lr.ph

.lr.ph:                                           ; preds = %.lr.ph.preheader, %15
  %.0.i6 = phi ptr [ %16, %15 ], [ %.ptr, %.lr.ph.preheader ]
  %12 = load ptr, ptr %.0.i6, align 8
  %.not11.i = icmp eq ptr %12, null
  br i1 %.not11.i, label %15, label %13

13:                                               ; preds = %.lr.ph
  %14 = load ptr, ptr %0, align 8
  tail call fastcc void @_ZN12_GLOBAL__N_112StmtProfiler9VisitStmtEPKN5clang4StmtE(ptr noundef nonnull align 8 dereferenceable(18) %14, ptr noundef nonnull %12)
  br label %15

15:                                               ; preds = %13, %.lr.ph
  %16 = getelementptr inbounds nuw i8, ptr %.0.i6, i64 8
  %.not.i = icmp eq ptr %16, %.ptr7
  br i1 %.not.i, label %_ZN12_GLOBAL__N_117OMPClauseProfiler18VisitOMPClauseListIKN5clang17OMPAllocateClauseEEEvPT_.exit, label %.lr.ph

_ZN12_GLOBAL__N_117OMPClauseProfiler18VisitOMPClauseListIKN5clang17OMPAllocateClauseEEEvPT_.exit: ; preds = %15, %7
  ret void
}